/*
 * Intel ACPI Component Architecture
 * AML/ASL+ Disassembler version 20190509 (64-bit version)
 * Copyright (c) 2000 - 2019 Intel Corporation
 *
 * Disassembly of apic.dat, Tue May 16 10:29:07 2023
 *
 * ACPI Data Table [APIC]
 *
 * Format: [HexOffset DecimalOffset ByteLength]  FieldName : FieldValue
 */

[000h 0000   4]                    Signature : "APIC"    [Multiple APIC Description Table (MADT)]
[004h 0004   4]                 Table Length : 00000052
[008h 0008   1]                     Revision : 05
[009h 0009   1]                     Checksum : C8
[00Ah 0010   6]                       Oem ID : "CLOUDH"
[010h 0016   8]                 Oem Table ID : "CHMADT  "
[018h 0024   4]                 Oem Revision : 00000001
[01Ch 0028   4]              Asl Compiler ID : "RVAT"
[020h 0032   4]        Asl Compiler Revision : 01000000

[024h 0036   4]           Local Apic Address : FEE00000
[028h 0040   4]        Flags (decoded below) : 00000000
                         PC-AT Compatibility : 0

[02Ch 0044   1]                Subtable Type : 00 [Processor Local APIC]
[02Dh 0045   1]                       Length : 08
[02Eh 0046   1]                 Processor ID : 00
[02Fh 0047   1]                Local Apic ID : 00
[030h 0048   4]        Flags (decoded below) : 00000003
                           Processor Enabled : 1
                      Runtime Online Capable : 1

[034h 0052   1]                Subtable Type : 00 [Processor Local APIC]
[035h 0053   1]                       Length : 08
[036h 0054   1]                 Processor ID : 01
[037h 0055   1]                Local Apic ID : 01
[038h 0056   4]        Flags (decoded below) : 00000003
                           Processor Enabled : 1
                      Runtime Online Capable : 1

[03Ch 0060   1]                Subtable Type : 01 [I/O APIC]
[03Dh 0061   1]                       Length : 0C
[03Eh 0062   1]                  I/O Apic ID : 00
[03Fh 0063   1]                     Reserved : 00
[040h 0064   4]                      Address : FEC00000
[044h 0068   4]                    Interrupt : 00000000

[048h 0072   1]                Subtable Type : 02 [Interrupt Source Override]
[049h 0073   1]                       Length : 0A
[04Ah 0074   1]                          Bus : 00
[04Bh 0075   1]                       Source : 04
[04Ch 0076   4]                    Interrupt : 00000004
[050h 0080   2]        Flags (decoded below) : 0000
                                    Polarity : 0
                                Trigger Mode : 0

Raw Table Data: Length 82 (0x52)

    0000: 41 50 49 43 52 00 00 00 05 C8 43 4C 4F 55 44 48  // APICR.....CLOUDH
    0010: 43 48 4D 41 44 54 20 20 01 00 00 00 52 56 41 54  // CHMADT  ....RVAT
    0020: 00 00 00 01 00 00 E0 FE 00 00 00 00 00 08 00 00  // ................
    0030: 03 00 00 00 00 08 01 01 03 00 00 00 01 0C 00 00  // ................
    0040: 00 00 C0 FE 00 00 00 00 02 0A 00 04 04 00 00 00  // ................
    0050: 00 00                                            // ..
